(lp0
(lp1
F1.0
aF3.77171893310567
aF1.127187937048946
aF7.386074623284414
aF0.15308128910493607
aF10.0
aF5.0
aa(lp2
F1.0
aF5.39534155262708
aF0.98656292919695
aF37.08717262989588
aF4.239850833722529
aF1.0
aF10.0
aF5.0
aF0.0
aa(lp3
F1.0
aF1.4851400812001416
aF4.622642089946709
aF15.480172846498393
aF0.2529381623836905
aF10.0
aF5.0
aa(lp4
F1.0
aF29.83450045109472
aF7.474704178672191
aF15.124957860283313
aF0.2529546101650717
aF1.0
aF10.0
aF5.0
aF0.0
aa(lp5
F1.0
aF3.338216973856267
aF0.9308627357279061
aF16.35118068236847
aF0.05546413805821909
aF10.0
aF5.0
aa(lp6
F1.0
aF18.66583326972395
aF0.4342181482026124
aF2.7675878040952817
aF1.1258705773977868
aF1.0
aF10.0
aF5.0
aF0.0
aa(lp7
F1.0
aF25.451476653584322
aF1.3432463489961148
aF11.514596599667392
aF3.8061834672043133
aF1.0
aF10.0
aF5.0
aF0.0
aa(lp8
F1.0
aF7.221182869295435
aF5.541598594273754
aF18.15728485661611
aF1.5954131338834434
aF10.0
aF5.0
aa(lp9
F1.0
aF12.710225916200343
aF7.741111100196466
aF23.48697636922533
aF0.2369769401329414
aF1.0
aF10.0
aF5.0
aF0.0
aa(lp10
F1.0
aF28.87530794796003
aF1.871746109692594
aF12.553998638985641
aF3.6544387308695017
aF1.0
aF10.0
aF5.0
aF0.0
aa(lp11
F1.0
aF9.781665345620803
aF5.555473585302414
aF46.8850002799262
aF0.5231861282667228
aF1.0
aF10.0
aF5.0
aF0.0
aa(lp12
F1.0
aF14.766256633310164
aF3.4469735605454064
aF25.522351394444026
aF1.3711369476679365
aF1.0
aF10.0
aF5.0
aF0.0
aa(lp13
F1.0
aF40.9673091084521
aF1.9751599434632077
aF10.17166130417734
aF1.7086551266105916
aF1.0
aF10.0
aF5.0
aF0.0
aa(lp14
F1.0
aF40.07982220365014
aF5.5474453899959375
aF14.270281938269193
aF0.9946465506313964
aF1.0
aF10.0
aF5.0
aF0.0
aa(lp15
F1.0
aF13.43296842937144
aF3.547013996134279
aF14.485173023487715
aF0.5326621534560687
aF1.0
aF10.0
aF5.0
aF0.0
aa(lp16
F1.0
aF11.315060166163374
aF5.2240089427758925
aF38.50534199162058
aF0.5959320854674173
aF1.0
aF10.0
aF5.0
aF0.0
aa(lp17
F1.0
aF4.297152584420452
aF1.9838703223137746
aF0.487630401475025
aF1.6340881100392637
aF10.0
aF5.0
aa(lp18
F1.0
aF7.709781186599381
aF0.37702972855053224
aF5.853603574193475
aF0.08293398443895925
aF10.0
aF5.0
aa(lp19
F1.0
aF21.935655939752007
aF5.957003226500882
aF29.206047982943275
aF0.6288355907390222
aF1.0
aF10.0
aF5.0
aF0.0
aa(lp20
F1.0
aF2.49729522860921
aF1.8792320211547828
aF16.405530260128685
aF0.13967275153042777
aF10.0
aF5.0
aa(lp21
F1.0
aF7.580428013421482
aF3.68051454438508
aF9.574984863611691
aF1.279524301603931
aF10.0
aF5.0
aa(lp22
F1.0
aF9.936353856567681
aF1.6936897215646693
aF7.775992938037346
aF0.23644907584425706
aF1.0
aF10.0
aF5.0
aF0.0
aa(lp23
F1.0
aF5.335023629509292
aF4.562711555593965
aF11.74354040540899
aF1.2465031989541095
aF10.0
aF5.0
aa(lp24
F1.0
aF7.515403324135928
aF3.0011970515154536
aF47.15673120503994
aF0.9905517569073277
aF1.0
aF10.0
aF5.0
aF0.0
aa(lp25
F1.0
aF19.860961901052935
aF0.34312358028285306
aF5.8455905472669585
aF1.8147074149427946
aF1.0
aF10.0
aF5.0
aF0.0
aa(lp26
F1.0
aF39.52147242431192
aF4.1056746176195915
aF16.190280146472737
aF1.841200360563228
aF1.0
aF10.0
aF5.0
aF0.0
aa(lp27
F1.0
aF2.031748996134679
aF1.4988425109547974
aF30.578455920771873
aF1.2014623396364854
aF1.0
aF10.0
aF5.0
aF0.0
aa(lp28
F1.0
aF3.480063361967313
aF6.253991999353689
aF10.784907311945295
aF1.3927251266046534
aF10.0
aF5.0
aa(lp29
F1.0
aF6.588486524358784
aF4.958344302694789
aF21.145779918191725
aF1.0757973866022552
aF10.0
aF5.0
aa(lp30
F1.0
aF3.5256826731684336
aF3.0097795318453855
aF14.868588902614546
aF0.39261339159995684
aF10.0
aF5.0
aa(lp31
F1.0
aF7.11531350943609
aF2.6663967718842443
aF28.861782092869326
aF0.5099788044078404
aF10.0
aF5.0
aa(lp32
F1.0
aF16.705646647827464
aF6.708941918717078
aF44.32382930762121
aF1.3400818189887644
aF1.0
aF10.0
aF5.0
aF0.0
aa(lp33
F1.0
aF6.6842569322071395
aF5.43290067093173
aF16.091880955470213
aF1.4555810369337026
aF10.0
aF5.0
aa(lp34
F1.0
aF8.743196307803656
aF2.1311003851721297
aF15.100823651322612
aF0.7071624153003734
aF10.0
aF5.0
aa(lp35
F1.0
aF9.22272885050076
aF2.0981030835709285
aF2.7072309476504426
aF1.5706105843762006
aF10.0
aF5.0
aa(lp36
F1.0
aF3.271535852617172
aF3.57714178584005
aF16.51188106930386
aF0.46685914474905676
aF10.0
aF5.0
aa(lp37
F1.0
aF6.866397309364015
aF3.0224936719378306
aF27.288617237748944
aF0.6721843658639529
aF1.0
aF10.0
aF5.0
aF0.0
aa(lp38
F1.0
aF10.658214965860472
aF3.4800618538314554
aF35.24139077161394
aF1.3659161963966289
aF1.0
aF10.0
aF5.0
aF0.0
aa(lp39
F1.0
aF1.7372138608771208
aF6.8606459614602215
aF17.42989158888126
aF0.3268938412788608
aF10.0
aF5.0
aa(lp40
F1.0
aF14.848524254977825
aF1.9189315269074514
aF18.225829649962634
aF1.2511269058154169
aF1.0
aF10.0
aF5.0
aF0.0
aa(lp41
F1.0
aF10.793151666439455
aF5.290658690165756
aF23.905903116706682
aF0.5237205972963035
aF1.0
aF10.0
aF5.0
aF0.0
aa(lp42
F1.0
aF4.219576172801063
aF2.7535102935150553
aF14.911353490235534
aF0.40655451705781265
aF10.0
aF5.0
aa(lp43
F1.0
aF4.210676318049399
aF1.90228691057826
aF12.196850497382128
aF0.24892888894491455
aF10.0
aF5.0
aa(lp44
F1.0
aF36.122124890323136
aF2.3379129355388044
aF7.707843000891604
aF0.5903984110407873
aF1.0
aF10.0
aF5.0
aF0.0
aa(lp45
F1.0
aF25.324438004212883
aF6.56868045671308
aF29.26765564331619
aF0.8176773865394434
aF1.0
aF10.0
aF5.0
aF0.0
aa(lp46
F1.0
aF4.596916713137759
aF2.0617557585934705
aF24.583649456110482
aF0.1756234156698074
aF10.0
aF5.0
aa(lp47
F1.0
aF12.318456729734914
aF0.8658374603961461
aF14.080300935933913
aF2.7221596486880815
aF1.0
aF10.0
aF5.0
aF0.0
aa(lp48
F1.0
aF5.288060577541876
aF2.209460982321476
aF36.03332780399935
aF1.3492477531034424
aF1.0
aF10.0
aF5.0
aF0.0
aa(lp49
F1.0
aF38.09130426198587
aF2.358520990551055
aF8.339745302991
aF2.2550248115846903
aF1.0
aF10.0
aF5.0
aF0.0
aa(lp50
F1.0
aF3.6876110629235765
aF3.266981331351562
aF6.906834731305638
aF1.078770344767952
aF10.0
aF5.0
aa(lp51
F1.0
aF41.36763730246406
aF3.948889533497063
aF9.130747514580323
aF0.5007392705601843
aF1.0
aF10.0
aF5.0
aF0.0
aa(lp52
F1.0
aF8.688431102918049
aF4.303119373947432
aF11.678973177159383
aF1.6453079955041248
aF10.0
aF5.0
aa(lp53
F1.0
aF3.8335398875805655
aF1.1950483110101535
aF25.8829698521237
aF2.481953582366154
aF1.0
aF10.0
aF5.0
aF0.0
aa(lp54
F1.0
aF3.1105593391267687
aF2.2876135279021215
aF26.345850414395926
aF0.19764501074380203
aF10.0
aF5.0
aa(lp55
F1.0
aF6.18898275834188
aF1.780991712996828
aF36.53216639323236
aF1.653095327249907
aF1.0
aF10.0
aF5.0
aF0.0
aa(lp56
F1.0
aF36.750116353558695
aF1.4353897490533796
aF5.676055274228858
aF0.6131100619123722
aF1.0
aF10.0
aF5.0
aF0.0
aa(lp57
F1.0
aF4.253173353832952
aF3.1335901400584945
aF13.855056714681668
aF0.5773760439578524
aF10.0
aF5.0
aa(lp58
F1.0
aF26.738222565330382
aF6.183873081454868
aF24.911418396472712
aF0.629824063423606
aF1.0
aF10.0
aF5.0
aF0.0
aa(lp59
F1.0
aF9.785685342914565
aF2.3526890245052856
aF17.224784491989126
aF0.7111511918896599
aF10.0
aF5.0
aa(lp60
F1.0
aF9.283096258956036
aF1.1369974133245517
aF6.802404546376538
aF1.9824523866770671
aF1.0
aF10.0
aF5.0
aF0.0
aa(lp61
F1.0
aF7.952291588229961
aF0.7641819906561962
aF13.259575084354253
aF1.4877820011151122
aF1.0
aF10.0
aF5.0
aF0.0
aa(lp62
F1.0
aF11.216059847463724
aF3.419999528458371
aF33.67076684767561
aF0.9817049531739568
aF1.0
aF10.0
aF5.0
aF0.0
aa(lp63
F1.0
aF13.07641620835458
aF3.2351909186871364
aF34.56146577713245
aF1.4749003158554235
aF1.0
aF10.0
aF5.0
aF0.0
aa(lp64
F1.0
aF5.33283315574201
aF3.976526153628139
aF11.609711312813042
aF1.0590567495425924
aF10.0
aF5.0
aa(lp65
F1.0
aF8.928503224510186
aF4.905904180391353
aF18.965382260240048
aF1.2426432007287085
aF10.0
aF5.0
aa(lp66
F1.0
aF38.719884213807575
aF3.4319619697921455
aF13.163052165275634
aF1.2734259995762007
aF1.0
aF10.0
aF5.0
aF0.0
aa(lp67
F1.0
aF3.8515858369841203
aF3.6926242241191525
aF24.350346010638603
aF0.28225641067532115
aF10.0
aF5.0
aa(lp68
F1.0
aF5.37300633179449
aF1.676819677659621
aF42.91785723941473
aF1.344733058526881
aF1.0
aF10.0
aF5.0
aF0.0
aa(lp69
F1.0
aF8.177615730146314
aF2.1680521400312025
aF16.116776647142004
aF0.6829135756170632
aF10.0
aF5.0
aa(lp70
F1.0
aF9.060771452012053
aF1.4683596658958709
aF0.7271978839635009
aF1.4009793794059993
aF10.0
aF5.0
aa(lp71
F1.0
aF48.27278172970647
aF6.691804764074693
aF18.953595882191664
aF0.6326005948295172
aF1.0
aF10.0
aF5.0
aF0.0
aa(lp72
F1.0
aF6.972392426371306
aF1.803869238540686
aF11.23563820621084
aF0.5621043344192341
aF10.0
aF5.0
aa(lp73
F1.0
aF3.109252808717775
aF3.841900881604861
aF45.90523838909666
aF0.6121382035049646
aF1.0
aF10.0
aF5.0
aF0.0
aa(lp74
F1.0
aF6.017839165118388
aF4.816499236938308
aF14.637785303247005
aF1.4081006732886598
aF10.0
aF5.0
aa(lp75
F1.0
aF12.656514469217486
aF4.601795443786152
aF19.244457128071073
aF0.26226286257862924
aF1.0
aF10.0
aF5.0
aF0.0
aa(lp76
F1.0
aF28.246408079822068
aF1.4226272838711163
aF11.419188246123312
aF1.5218773051597392
aF1.0
aF10.0
aF5.0
aF0.0
aa(lp77
F1.0
aF7.629380840936891
aF1.4066352196994283
aF6.356442197329448
aF0.7594281521477662
aF10.0
aF5.0
aa(lp78
F1.0
aF26.995067118127935
aF5.444038206064183
aF18.64348139089052
aF0.4292265400663916
aF1.0
aF10.0
aF5.0
aF0.0
aa(lp79
F1.0
aF28.920158132569416
aF1.6765719667584484
aF9.509949734497527
aF2.2406393969206246
aF1.0
aF10.0
aF5.0
aF0.0
aa(lp80
F1.0
aF7.756124554356004
aF2.342484632559919
aF38.49108180305207
aF2.9741824987069245
aF1.0
aF10.0
aF5.0
aF0.0
aa(lp81
F1.0
aF9.4266655207244
aF2.0484693749279272
aF20.67595461604222
aF0.47058717459524124
aF10.0
aF5.0
aa(lp82
F1.0
aF4.501860787326073
aF1.0088727877013337
aF15.847359258889494
aF0.03273380504937684
aF10.0
aF5.0
aa(lp83
F1.0
aF18.739100264667215
aF1.794646174708286
aF13.655831637335423
aF1.1313395876853958
aF1.0
aF10.0
aF5.0
aF0.0
aa(lp84
F1.0
aF11.667124391553305
aF2.521521135454873
aF25.49549956397204
aF2.4811268058642257
aF1.0
aF10.0
aF5.0
aF0.0
aa(lp85
F1.0
aF14.857546798411763
aF2.882540053856199
aF21.245655374594527
aF1.9743845286470396
aF1.0
aF10.0
aF5.0
aF0.0
aa(lp86
F1.0
aF5.681786839880327
aF0.43631379986587504
aF17.28456137519096
aF2.5340783742117177
aF1.0
aF10.0
aF5.0
aF0.0
aa(lp87
F1.0
aF2.587248087811296
aF2.97059713223677
aF14.548015355420013
aF0.2762976236347064
aF10.0
aF5.0
aa(lp88
F1.0
aF4.830839884889748
aF3.2270896969129854
aF5.086781111779496
aF1.3766907802247517
aF10.0
aF5.0
aa(lp89
F1.0
aF40.92939569516994
aF3.5405347075809948
aF7.161608369845871
aF0.3962779130804956
aF1.0
aF10.0
aF5.0
aF0.0
aa(lp90
F1.0
aF5.319486121046383
aF2.888270708032644
aF19.740976707828132
aF0.42866633444133834
aF10.0
aF5.0
aa(lp91
F1.0
aF6.089626514790801
aF1.5528103314213795
aF20.273502614272527
aF0.2599638501455583
aF10.0
aF5.0
aa(lp92
F1.0
aF31.232938775564357
aF4.3317614881247035
aF14.569752978343457
aF0.6000837503948959
aF1.0
aF10.0
aF5.0
aF0.0
aa(lp93
F1.0
aF7.87627406194681
aF3.196735850341529
aF34.4787604222969
aF1.414771964428653
aF1.0
aF10.0
aF5.0
aF0.0
aa(lp94
F1.0
aF14.013752292826196
aF5.958456947784757
aF16.143859370390363
aF0.24176572905940397
aF1.0
aF10.0
aF5.0
aF0.0
aa(lp95
F1.0
aF26.104306880110343
aF3.1888011806532903
aF16.654620123529146
aF0.7310646963409441
aF1.0
aF10.0
aF5.0
aF0.0
aa(lp96
F1.0
aF16.067434708530563
aF3.7068580212729114
aF15.66490627772801
aF0.8870950698851975
aF1.0
aF10.0
aF5.0
aF0.0
aa(lp97
F1.0
aF5.192843312092769
aF3.675099972106434
aF2.275637452426335
aF2.358269877860172
aF10.0
aF5.0
aa(lp98
F1.0
aF32.34360958900771
aF3.60944270563117
aF8.911446617382076
aF0.523391049113185
aF1.0
aF10.0
aF5.0
aF0.0
aa(lp99
F1.0
aF3.7900379091473297
aF1.4345788233499859
aF11.495078303278362
aF0.23001642603506162
aF10.0
aF5.0
aa(lp100
F1.0
aF2.7385027006381657
aF2.7421901626658034
aF28.409614212786146
aF0.6127293204249421
aF1.0
aF10.0
aF5.0
aF0.0
aa.